; Function Attrs: mustprogress nofree norecurse nosync nounwind sspstrong willreturn memory(read, inaccessiblemem: none) uwtable
define hidden range(i64 0, 21) i64 @rb_yjit_splat_varg_checks(ptr noundef readnone captures(address) %0, i64 noundef %1, ptr noundef readnone captures(address) %2) local_unnamed_addr #4 {
  %4 = inttoptr i64 %1 to ptr
  %5 = load i64, ptr %4, align 8, !tbaa !11
  %6 = and i64 %5, 8192
  %.not.i = icmp eq i64 %6, 0
  br i1 %.not.i, label %10, label %7

7:                                                ; preds = %3
  %8 = lshr i64 %5, 15
  %9 = and i64 %8, 127
  br label %rb_array_len.exit

10:                                               ; preds = %3
  %11 = getelementptr inbounds nuw i8, ptr %4, i64 16
  %12 = load i64, ptr %11, align 8, !tbaa !14
  br label %rb_array_len.exit

rb_array_len.exit:                                ; preds = %7, %10
  %.0.i19 = phi i64 [ %9, %7 ], [ %12, %10 ]
  %or.cond = icmp ugt i64 %.0.i19, 128
  %13 = getelementptr i64, ptr %0, i64 %.0.i19
  %14 = getelementptr i8, ptr %2, i64 -112
  %15 = icmp ugt ptr %13, %14
  %or.cond18 = or i1 %or.cond, %15
  br i1 %or.cond18, label %33, label %16

16:                                               ; preds = %rb_array_len.exit
  %.not = icmp eq i64 %.0.i19, 0
  br i1 %.not, label %33, label %17

17:                                               ; preds = %16
  br i1 %.not.i, label %20, label %18

18:                                               ; preds = %17
  %19 = getelementptr inbounds nuw i8, ptr %4, i64 16
  br label %RARRAY_AREF.exit

20:                                               ; preds = %17
  %21 = getelementptr inbounds nuw i8, ptr %4, i64 32
  %22 = load ptr, ptr %21, align 8, !tbaa !14
  br label %RARRAY_AREF.exit

RARRAY_AREF.exit:                                 ; preds = %18, %20
  %.0.i.i = phi ptr [ %19, %18 ], [ %22, %20 ]
  %23 = getelementptr i64, ptr %.0.i.i, i64 %.0.i19
  %24 = getelementptr i8, ptr %23, i64 -8
  %25 = load i64, ptr %24, align 8, !tbaa !15
  %26 = icmp eq i64 %25, 0
  %27 = and i64 %25, 7
  %28 = icmp ne i64 %27, 0
  %29 = or i1 %26, %28
  br i1 %29, label %.critedge, label %rbimpl_RB_TYPE_P_fastpath.exit

rbimpl_RB_TYPE_P_fastpath.exit:                   ; preds = %RARRAY_AREF.exit
  %30 = inttoptr i64 %25 to ptr
  %31 = load i64, ptr %30, align 8, !tbaa !11
  %32 = and i64 %31, 8223
  %or.cond21.not = icmp eq i64 %32, 8200
  br i1 %or.cond21.not, label %33, label %.critedge

.critedge:                                        ; preds = %RARRAY_AREF.exit, %rbimpl_RB_TYPE_P_fastpath.exit
  br label %33

33:                                               ; preds = %rbimpl_RB_TYPE_P_fastpath.exit, %16, %.critedge, %rb_array_len.exit
  %.0 = phi i64 [ 0, %rb_array_len.exit ], [ 20, %.critedge ], [ 20, %16 ], [ 0, %rbimpl_RB_TYPE_P_fastpath.exit ]
  ret i64 %.0
}